target datalayout = "e-m:e-p270:32:32-p271:32:32-p272:64:64-i64:64-i128:128-f80:128-n8:16:32:64-S128"
target triple = "x86_64-pc-linux-gnu"

%struct.llama_data_write_dummy = type { %struct.llama_data_write, i64 }
%struct.llama_data_write = type { ptr }

@_ZTV16llama_data_write = linkonce_odr unnamed_addr constant { [7 x ptr] } { [7 x ptr] [ptr null, ptr @_ZTI16llama_data_write, ptr @__cxa_pure_virtual, ptr @__cxa_pure_virtual, ptr @__cxa_pure_virtual, ptr @_ZN16llama_data_writeD2Ev, ptr @_ZN16llama_data_writeD0Ev] }, comdat, align 8

; Function Attrs: inlinehint mustprogress nounwind uwtable
define linkonce_odr void @_ZN16llama_data_writeC2Ev(ptr noundef nonnull align 8 dereferenceable(8) %0) unnamed_addr #7 comdat align 2 {
  %2 = alloca ptr, align 8
  store ptr %0, ptr %2, align 8, !tbaa !393
  %3 = load ptr, ptr %2, align 8
  store ptr getelementptr inbounds inrange(-16, 40) ({ [7 x ptr] }, ptr @_ZTV16llama_data_write, i32 0, i32 0, i32 2), ptr %3, align 8, !tbaa !375
  ret void
}

; Function Attrs: mustprogress nounwind uwtable
define linkonce_odr void @_ZN16llama_data_writeD2Ev(ptr noundef nonnull align 8 dereferenceable(8) %0) unnamed_addr #0 comdat align 2 {
  %2 = alloca ptr, align 8
  store ptr %0, ptr %2, align 8, !tbaa !393
  ret void
}

; Function Attrs: mustprogress uwtable
define internal noundef i64 @_ZL33llama_state_seq_get_data_internalP13llama_contextR16llama_data_writei(ptr noundef %0, ptr noundef nonnull align 8 dereferenceable(8) %1, i32 noundef %2) #2 {
  %4 = alloca ptr, align 8
  %5 = alloca ptr, align 8
  %6 = alloca i32, align 4
  store ptr %0, ptr %4, align 8, !tbaa !3
  store ptr %1, ptr %5, align 8, !tbaa !393
  store i32 %2, ptr %6, align 4, !tbaa !130
  %7 = load ptr, ptr %4, align 8, !tbaa !3
  call void @llama_synchronize(ptr noundef %7)
  %8 = load ptr, ptr %5, align 8, !tbaa !393
  %9 = load ptr, ptr %4, align 8, !tbaa !3
  %10 = load i32, ptr %6, align 4, !tbaa !130
  call void @_ZN16llama_data_write14write_kv_cacheEPK13llama_contexti(ptr noundef nonnull align 8 dereferenceable(8) %8, ptr noundef %9, i32 noundef %10)
  %11 = load ptr, ptr %5, align 8, !tbaa !393
  %12 = load ptr, ptr %11, align 8, !tbaa !375
  %13 = getelementptr inbounds ptr, ptr %12, i64 2
  %14 = load ptr, ptr %13, align 8
  %15 = call noundef i64 %14(ptr noundef nonnull align 8 dereferenceable(8) %11)
  ret i64 %15
}

; Function Attrs: mustprogress nounwind uwtable
define linkonce_odr void @_ZN22llama_data_write_dummyC2Ev(ptr noundef nonnull align 8 dereferenceable(16) %0) unnamed_addr #0 comdat align 2 {
  %2 = alloca ptr, align 8
  store ptr %0, ptr %2, align 8, !tbaa !395
  %3 = load ptr, ptr %2, align 8
  call void @_ZN16llama_data_writeC2Ev(ptr noundef nonnull align 8 dereferenceable(8) %3) #19
  store ptr getelementptr inbounds inrange(-16, 40) ({ [7 x ptr] }, ptr @_ZTV22llama_data_write_dummy, i32 0, i32 0, i32 2), ptr %3, align 8, !tbaa !375
  %4 = getelementptr inbounds nuw %struct.llama_data_write_dummy, ptr %3, i32 0, i32 1
  store i64 0, ptr %4, align 8, !tbaa !397
  ret void
}

; Function Attrs: mustprogress uwtable
define i64 @llama_state_seq_get_size(ptr noundef %0, i32 noundef %1) #2 personality ptr @__gxx_personality_v0 {
  %3 = alloca ptr, align 8
  %4 = alloca i32, align 4
  %5 = alloca %struct.llama_data_write_dummy, align 8
  %6 = alloca ptr, align 8
  %7 = alloca i32, align 4
  store ptr %0, ptr %3, align 8, !tbaa !3
  store i32 %1, ptr %4, align 4, !tbaa !130
  call void @llvm.lifetime.start.p0(i64 16, ptr %5) #19
  call void @_ZN22llama_data_write_dummyC2Ev(ptr noundef nonnull align 8 dereferenceable(16) %5)
  %8 = load ptr, ptr %3, align 8, !tbaa !3
  %9 = load i32, ptr %4, align 4, !tbaa !130
  %10 = invoke noundef i64 @_ZL33llama_state_seq_get_data_internalP13llama_contextR16llama_data_writei(ptr noundef %8, ptr noundef nonnull align 8 dereferenceable(8) %5, i32 noundef %9)
          to label %11 unwind label %12

11:                                               ; preds = %2
  call void @_ZN16llama_data_writeD2Ev(ptr noundef nonnull align 8 dereferenceable(16) %5) #19
  call void @llvm.lifetime.end.p0(i64 16, ptr %5) #19
  ret i64 %10

12:                                               ; preds = %2
  %13 = landingpad { ptr, i32 }
          cleanup
  %14 = extractvalue { ptr, i32 } %13, 0
  store ptr %14, ptr %6, align 8
  %15 = extractvalue { ptr, i32 } %13, 1
  store i32 %15, ptr %7, align 4
  call void @_ZN16llama_data_writeD2Ev(ptr noundef nonnull align 8 dereferenceable(16) %5) #19
  call void @llvm.lifetime.end.p0(i64 16, ptr %5) #19
  br label %16

16:                                               ; preds = %12
  %17 = load ptr, ptr %6, align 8
  %18 = load i32, ptr %7, align 4
  %19 = insertvalue { ptr, i32 } poison, ptr %17, 0
  %20 = insertvalue { ptr, i32 } %19, i32 %18, 1
  resume { ptr, i32 } %20
}