; Function Attrs: mustprogress uwtable
define noundef i64 @llama_state_seq_get_size(ptr noundef %0, i32 noundef %1) local_unnamed_addr #2 personality ptr @__gxx_personality_v0 {
.noexc:
  %2 = alloca %struct.llama_data_write_dummy, align 8
  call void @llvm.lifetime.start.p0(i64 16, ptr nonnull %2) #29
  store ptr getelementptr inbounds nuw inrange(-16, 40) (i8, ptr @_ZTV22llama_data_write_dummy, i64 16), ptr %2, align 8, !tbaa !336
  %3 = getelementptr inbounds nuw i8, ptr %2, i64 8
  store i64 0, ptr %3, align 8, !tbaa !339
  tail call void @llama_synchronize(ptr noundef %0)
  call void @_ZN16llama_data_write14write_kv_cacheEPK13llama_contexti(ptr noundef nonnull align 8 dereferenceable(8) %2, ptr noundef %0, i32 noundef %1)
  %4 = load ptr, ptr %2, align 8, !tbaa !336
  %5 = getelementptr inbounds nuw i8, ptr %4, i64 16
  %6 = load ptr, ptr %5, align 8
  %7 = call noundef i64 %6(ptr noundef nonnull align 8 dereferenceable(8) %2)
  call void @llvm.lifetime.end.p0(i64 16, ptr nonnull %2) #29
  ret i64 %7
}